target datalayout = "e-m:e-p270:32:32-p271:32:32-p272:64:64-i64:64-i128:128-f80:128-n8:16:32:64-S128"
target triple = "x86_64-pc-linux-gnu"

%struct.FunctionCallInfoBaseData = type { ptr, ptr, ptr, i32, i8, i16, [0 x %struct.NullableDatum] }
%struct.NullableDatum = type { i64, i8 }

@.str.2 = private unnamed_addr constant [6 x i8] c"int.c\00", align 1
@.str.6 = private unnamed_addr constant [55 x i8] c"invalid preceding or following size in window function\00", align 1
@__func__.in_range_int2_int4 = private unnamed_addr constant [19 x i8] c"in_range_int2_int4\00", align 1

; Function Attrs: inlinehint nounwind uwtable
define internal i64 @BoolGetDatum(i1 noundef zeroext %0) #2 {
  %2 = alloca i8, align 1
  %3 = zext i1 %0 to i8
  store i8 %3, ptr %2, align 1
  %4 = load i8, ptr %2, align 1, !range !7, !noundef !8
  %5 = trunc i8 %4 to i1
  %6 = select i1 %5, i32 1, i32 0
  %7 = sext i32 %6 to i64
  ret i64 %7
}

; Function Attrs: inlinehint nounwind uwtable
define internal zeroext i1 @pg_add_s32_overflow(i32 noundef %0, i32 noundef %1, ptr noundef %2) #2 {
  %4 = alloca i32, align 4
  %5 = alloca i32, align 4
  %6 = alloca ptr, align 8
  store i32 %0, ptr %4, align 4
  store i32 %1, ptr %5, align 4
  store ptr %2, ptr %6, align 8
  %7 = load i32, ptr %4, align 4
  %8 = load i32, ptr %5, align 4
  %9 = load ptr, ptr %6, align 8
  %10 = call { i32, i1 } @llvm.sadd.with.overflow.i32(i32 %7, i32 %8)
  %11 = extractvalue { i32, i1 } %10, 1
  %12 = extractvalue { i32, i1 } %10, 0
  store i32 %12, ptr %9, align 4
  ret i1 %11
}

; Function Attrs: inlinehint nounwind uwtable
define internal zeroext i1 @DatumGetBool(i64 noundef %0) #2 {
  %2 = alloca i64, align 8
  store i64 %0, ptr %2, align 8
  %3 = load i64, ptr %2, align 8
  %4 = icmp ne i64 %3, 0
  ret i1 %4
}

; Function Attrs: inlinehint nounwind uwtable
define internal i32 @DatumGetInt32(i64 noundef %0) #2 {
  %2 = alloca i64, align 8
  store i64 %0, ptr %2, align 8
  %3 = load i64, ptr %2, align 8
  %4 = trunc i64 %3 to i32
  ret i32 %4
}

; Function Attrs: inlinehint nounwind uwtable
define internal signext i16 @DatumGetInt16(i64 noundef %0) #2 {
  %2 = alloca i64, align 8
  store i64 %0, ptr %2, align 8
  %3 = load i64, ptr %2, align 8
  %4 = trunc i64 %3 to i16
  ret i16 %4
}

; Function Attrs: nounwind uwtable
define dso_local i64 @in_range_int2_int4(ptr noundef %0) #0 {
  %2 = alloca i64, align 8
  %3 = alloca ptr, align 8
  %4 = alloca i32, align 4
  %5 = alloca i32, align 4
  %6 = alloca i32, align 4
  %7 = alloca i8, align 1
  %8 = alloca i8, align 1
  %9 = alloca i32, align 4
  %10 = alloca i32, align 4
  store ptr %0, ptr %3, align 8
  call void @llvm.lifetime.start.p0(i64 4, ptr %4) #10
  %11 = load ptr, ptr %3, align 8
  %12 = getelementptr inbounds nuw %struct.FunctionCallInfoBaseData, ptr %11, i32 0, i32 6
  %13 = getelementptr inbounds [0 x %struct.NullableDatum], ptr %12, i64 0, i64 0
  %14 = getelementptr inbounds nuw %struct.NullableDatum, ptr %13, i32 0, i32 0
  %15 = load i64, ptr %14, align 8
  %16 = call signext i16 @DatumGetInt16(i64 noundef %15)
  %17 = sext i16 %16 to i32
  store i32 %17, ptr %4, align 4
  call void @llvm.lifetime.start.p0(i64 4, ptr %5) #10
  %18 = load ptr, ptr %3, align 8
  %19 = getelementptr inbounds nuw %struct.FunctionCallInfoBaseData, ptr %18, i32 0, i32 6
  %20 = getelementptr inbounds [0 x %struct.NullableDatum], ptr %19, i64 0, i64 1
  %21 = getelementptr inbounds nuw %struct.NullableDatum, ptr %20, i32 0, i32 0
  %22 = load i64, ptr %21, align 8
  %23 = call signext i16 @DatumGetInt16(i64 noundef %22)
  %24 = sext i16 %23 to i32
  store i32 %24, ptr %5, align 4
  call void @llvm.lifetime.start.p0(i64 4, ptr %6) #10
  %25 = load ptr, ptr %3, align 8
  %26 = getelementptr inbounds nuw %struct.FunctionCallInfoBaseData, ptr %25, i32 0, i32 6
  %27 = getelementptr inbounds [0 x %struct.NullableDatum], ptr %26, i64 0, i64 2
  %28 = getelementptr inbounds nuw %struct.NullableDatum, ptr %27, i32 0, i32 0
  %29 = load i64, ptr %28, align 8
  %30 = call i32 @DatumGetInt32(i64 noundef %29)
  store i32 %30, ptr %6, align 4
  call void @llvm.lifetime.start.p0(i64 1, ptr %7) #10
  %31 = load ptr, ptr %3, align 8
  %32 = getelementptr inbounds nuw %struct.FunctionCallInfoBaseData, ptr %31, i32 0, i32 6
  %33 = getelementptr inbounds [0 x %struct.NullableDatum], ptr %32, i64 0, i64 3
  %34 = getelementptr inbounds nuw %struct.NullableDatum, ptr %33, i32 0, i32 0
  %35 = load i64, ptr %34, align 8
  %36 = call zeroext i1 @DatumGetBool(i64 noundef %35)
  %37 = zext i1 %36 to i8
  store i8 %37, ptr %7, align 1
  call void @llvm.lifetime.start.p0(i64 1, ptr %8) #10
  %38 = load ptr, ptr %3, align 8
  %39 = getelementptr inbounds nuw %struct.FunctionCallInfoBaseData, ptr %38, i32 0, i32 6
  %40 = getelementptr inbounds [0 x %struct.NullableDatum], ptr %39, i64 0, i64 4
  %41 = getelementptr inbounds nuw %struct.NullableDatum, ptr %40, i32 0, i32 0
  %42 = load i64, ptr %41, align 8
  %43 = call zeroext i1 @DatumGetBool(i64 noundef %42)
  %44 = zext i1 %43 to i8
  store i8 %44, ptr %8, align 1
  call void @llvm.lifetime.start.p0(i64 4, ptr %9) #10
  %45 = load i32, ptr %6, align 4
  %46 = icmp slt i32 %45, 0
  br i1 %46, label %47, label %59

47:                                               ; preds = %1
  br label %48

48:                                               ; preds = %47
  br i1 true, label %49, label %51

49:                                               ; preds = %48
  %50 = call zeroext i1 @errstart_cold(i32 noundef 21, ptr noundef null) #12
  br i1 %50, label %53, label %56

51:                                               ; preds = %48
  %52 = call zeroext i1 @errstart(i32 noundef 21, ptr noundef null)
  br i1 %52, label %53, label %56

53:                                               ; preds = %51, %49
  %54 = call i32 @errcode(i32 noundef 50593922)
  %55 = call i32 (ptr, ...) @errmsg(ptr noundef @.str.6)
  call void @errfinish(ptr noundef @.str.2, i32 noundef 717, ptr noundef @__func__.in_range_int2_int4)
  br label %56

56:                                               ; preds = %53, %51, %49
  unreachable

57:                                               ; No predecessors!
  br label %58

58:                                               ; preds = %57
  br label %59

59:                                               ; preds = %58, %1
  %60 = load i8, ptr %7, align 1, !range !7, !noundef !8
  %61 = trunc i8 %60 to i1
  br i1 %61, label %62, label %65

62:                                               ; preds = %59
  %63 = load i32, ptr %6, align 4
  %64 = sub i32 0, %63
  store i32 %64, ptr %6, align 4
  br label %65

65:                                               ; preds = %62, %59
  %66 = load i32, ptr %5, align 4
  %67 = load i32, ptr %6, align 4
  %68 = call zeroext i1 @pg_add_s32_overflow(i32 noundef %66, i32 noundef %67, ptr noundef %9)
  %69 = zext i1 %68 to i32
  %70 = icmp ne i32 %69, 0
  %71 = zext i1 %70 to i32
  %72 = sext i32 %71 to i64
  %73 = call i64 @llvm.expect.i64(i64 %72, i64 0)
  %74 = icmp ne i64 %73, 0
  br i1 %74, label %75, label %91

75:                                               ; preds = %65
  %76 = load i8, ptr %7, align 1, !range !7, !noundef !8
  %77 = trunc i8 %76 to i1
  br i1 %77, label %78, label %83

78:                                               ; preds = %75
  %79 = load i8, ptr %8, align 1, !range !7, !noundef !8
  %80 = trunc i8 %79 to i1
  %81 = xor i1 %80, true
  %82 = zext i1 %81 to i32
  br label %87

83:                                               ; preds = %75
  %84 = load i8, ptr %8, align 1, !range !7, !noundef !8
  %85 = trunc i8 %84 to i1
  %86 = zext i1 %85 to i32
  br label %87

87:                                               ; preds = %83, %78
  %88 = phi i32 [ %82, %78 ], [ %86, %83 ]
  %89 = icmp ne i32 %88, 0
  %90 = call i64 @BoolGetDatum(i1 noundef zeroext %89)
  store i64 %90, ptr %2, align 8
  store i32 1, ptr %10, align 4
  br label %104

91:                                               ; preds = %65
  %92 = load i8, ptr %8, align 1, !range !7, !noundef !8
  %93 = trunc i8 %92 to i1
  br i1 %93, label %94, label %99

94:                                               ; preds = %91
  %95 = load i32, ptr %4, align 4
  %96 = load i32, ptr %9, align 4
  %97 = icmp sle i32 %95, %96
  %98 = call i64 @BoolGetDatum(i1 noundef zeroext %97)
  store i64 %98, ptr %2, align 8
  store i32 1, ptr %10, align 4
  br label %104

99:                                               ; preds = %91
  %100 = load i32, ptr %4, align 4
  %101 = load i32, ptr %9, align 4
  %102 = icmp sge i32 %100, %101
  %103 = call i64 @BoolGetDatum(i1 noundef zeroext %102)
  store i64 %103, ptr %2, align 8
  store i32 1, ptr %10, align 4
  br label %104

104:                                              ; preds = %99, %94, %87
  call void @llvm.lifetime.end.p0(i64 4, ptr %9) #10
  call void @llvm.lifetime.end.p0(i64 1, ptr %8) #10
  call void @llvm.lifetime.end.p0(i64 1, ptr %7) #10
  call void @llvm.lifetime.end.p0(i64 4, ptr %6) #10
  call void @llvm.lifetime.end.p0(i64 4, ptr %5) #10
  call void @llvm.lifetime.end.p0(i64 4, ptr %4) #10
  %105 = load i64, ptr %2, align 8
  ret i64 %105
}