; Function Attrs: nounwind uwtable
define dso_local range(i64 0, 2) i64 @in_range_int2_int4(ptr noundef readonly captures(none) %0) #0 {
  %2 = getelementptr inbounds nuw i8, ptr %0, i64 32
  %3 = load i64, ptr %2, align 8
  %4 = trunc i64 %3 to i32
  %sext = shl i32 %4, 16
  %5 = ashr exact i32 %sext, 16
  %6 = getelementptr inbounds nuw i8, ptr %0, i64 64
  %7 = load i64, ptr %6, align 8
  %8 = trunc i64 %7 to i32
  %9 = getelementptr inbounds nuw i8, ptr %0, i64 80
  %10 = load i64, ptr %9, align 8
  %.not = icmp ne i64 %10, 0
  %11 = getelementptr inbounds nuw i8, ptr %0, i64 96
  %12 = load i64, ptr %11, align 8
  %13 = icmp ne i64 %12, 0
  %14 = icmp slt i32 %8, 0
  br i1 %14, label %15, label %19

15:                                               ; preds = %1
  %16 = tail call zeroext i1 @errstart_cold(i32 noundef 21, ptr noundef null) #15
  tail call void @llvm.assume(i1 %16)
  %17 = tail call i32 @errcode(i32 noundef 50593922) #13
  %18 = tail call i32 (ptr, ...) @errmsg(ptr noundef nonnull @.str.6) #13
  tail call void @errfinish(ptr noundef nonnull @.str.2, i32 noundef 717, ptr noundef nonnull @__func__.in_range_int2_int4) #13
  unreachable

19:                                               ; preds = %1
  %20 = getelementptr inbounds nuw i8, ptr %0, i64 48
  %21 = load i64, ptr %20, align 8
  %22 = trunc i64 %21 to i32
  %sext20 = shl i32 %22, 16
  %23 = ashr exact i32 %sext20, 16
  %24 = sub nsw i32 0, %8
  %spec.select = select i1 %.not, i32 %24, i32 %8
  %25 = tail call { i32, i1 } @llvm.sadd.with.overflow.i32(i32 %23, i32 %spec.select)
  %26 = extractvalue { i32, i1 } %25, 1
  %27 = extractvalue { i32, i1 } %25, 0
  br i1 %26, label %28, label %29, !prof !14

28:                                               ; preds = %19
  %spec.select18 = xor i1 %.not, %13
  br label %34

29:                                               ; preds = %19
  br i1 %13, label %30, label %32

30:                                               ; preds = %29
  %31 = icmp sge i32 %27, %5
  br label %34

32:                                               ; preds = %29
  %33 = icmp sle i32 %27, %5
  br label %34

34:                                               ; preds = %32, %30, %28
  %.0.in = phi i1 [ %spec.select18, %28 ], [ %31, %30 ], [ %33, %32 ]
  %.0 = zext i1 %.0.in to i64
  ret i64 %.0
}